; Function Attrs: mustprogress nounwind uwtable
define dso_local range(i32 0, 2) i32 @LLVMLinkModules2(ptr noundef nonnull %0, ptr noundef %1) local_unnamed_addr #0 {
  %3 = alloca %"class.std::unique_ptr.85", align 8
  %4 = alloca %"class.std::function", align 8
  %5 = ptrtoint ptr %1 to i64
  store i64 %5, ptr %3, align 8
  call void @llvm.memset.p0.i64(ptr noundef nonnull align 8 dereferenceable(32) %4, i8 0, i64 32, i1 false)
  %6 = call noundef zeroext i1 @_ZN4llvm6Linker11linkModulesERNS_6ModuleESt10unique_ptrIS1_St14default_deleteIS1_EEjSt8functionIFvS2_RKNS_9StringSetINS_15MallocAllocatorEEEEE(ptr noundef nonnull align 8 dereferenceable(857) %0, ptr noundef nonnull %3, i32 noundef 0, ptr noundef nonnull %4)
  %7 = getelementptr inbounds nuw i8, ptr %4, i64 16
  %8 = load ptr, ptr %7, align 8
  %.not.i.i = icmp eq ptr %8, null
  br i1 %.not.i.i, label %_ZNSt8functionIFvRN4llvm6ModuleERKNS0_9StringSetINS0_15MallocAllocatorEEEEED2Ev.exit, label %9

9:                                                ; preds = %2
  %10 = call noundef zeroext i1 %8(ptr noundef nonnull align 8 dereferenceable(32) %4, ptr noundef nonnull align 8 dereferenceable(32) %4, i32 noundef 3) #13
  br label %_ZNSt8functionIFvRN4llvm6ModuleERKNS0_9StringSetINS0_15MallocAllocatorEEEEED2Ev.exit

_ZNSt8functionIFvRN4llvm6ModuleERKNS0_9StringSetINS0_15MallocAllocatorEEEEED2Ev.exit: ; preds = %2, %9
  %11 = load ptr, ptr %3, align 8
  %.not.i = icmp eq ptr %11, null
  br i1 %.not.i, label %_ZNSt10unique_ptrIN4llvm6ModuleESt14default_deleteIS1_EED2Ev.exit5, label %_ZNKSt14default_deleteIN4llvm6ModuleEEclEPS1_.exit.i

_ZNKSt14default_deleteIN4llvm6ModuleEEclEPS1_.exit.i: ; preds = %_ZNSt8functionIFvRN4llvm6ModuleERKNS0_9StringSetINS0_15MallocAllocatorEEEEED2Ev.exit
  call void @_ZN4llvm6ModuleD1Ev(ptr noundef nonnull align 8 dereferenceable(857) %11) #13
  call void @_ZdlPvm(ptr noundef nonnull %11, i64 noundef 864) #16
  br label %_ZNSt10unique_ptrIN4llvm6ModuleESt14default_deleteIS1_EED2Ev.exit5

_ZNSt10unique_ptrIN4llvm6ModuleESt14default_deleteIS1_EED2Ev.exit5: ; preds = %_ZNKSt14default_deleteIN4llvm6ModuleEEclEPS1_.exit.i, %_ZNSt8functionIFvRN4llvm6ModuleERKNS0_9StringSetINS0_15MallocAllocatorEEEEED2Ev.exit
  %12 = zext i1 %6 to i32
  ret i32 %12
}